target datalayout = "e-m:e-p270:32:32-p271:32:32-p272:64:64-i64:64-i128:128-f80:128-n8:16:32:64-S128"
target triple = "x86_64-pc-linux-gnu"

%struct.pmix_proc = type { [256 x i8], i32 }
%struct.pmix_list_t = type { %struct.pmix_object_t, %struct.pmix_list_item_t, i64 }
%struct.pmix_object_t = type { %union.pthread_mutex_t, ptr, i32, %struct.pmix_tma }
%union.pthread_mutex_t = type { %struct.__pthread_mutex_s }
%struct.__pthread_mutex_s = type { i32, i32, i32, i32, i32, i16, i16, %struct.__pthread_internal_list }
%struct.__pthread_internal_list = type { ptr, ptr }
%struct.pmix_tma = type { ptr, ptr, ptr, ptr, ptr, ptr, ptr, ptr }
%struct.pmix_list_item_t = type { %struct.pmix_object_t, ptr, ptr, i32 }
%struct.prte_odls_base_module_1_3_0_t = type { ptr, ptr, ptr, ptr, ptr }
%struct.pmix_class_t = type { ptr, ptr, ptr, ptr, i32, i32, ptr, ptr, i64 }
%struct.pmix_pointer_array_t = type { %struct.pmix_object_t, i32, i32, i32, i32, i32, ptr, ptr }
%struct.prte_proc_t = type { %struct.pmix_list_item_t, %struct.pmix_proc, i32, i32, i16, i16, i32, i16, i32, i32, i32, i32, ptr, ptr, ptr, ptr, i16, %struct.pmix_list_t }

@.str.3 = private unnamed_addr constant [15 x i8] c"errmgr_prted.c\00", align 1
@.str.5 = private unnamed_addr constant [37 x i8] c"PRTE ERROR: %s in file %s at line %d\00", align 1
@prte_odls = external global %struct.prte_odls_base_module_1_3_0_t, align 8
@pmix_class_init_epoch = external global i32, align 4
@pmix_pointer_array_t_class = external global %struct.pmix_class_t, align 8
@prte_proc_t_class = external global %struct.pmix_class_t, align 8

; Function Attrs: inlinehint nounwind uwtable
define internal void @pmix_obj_run_destructors(ptr noundef %0) #3 {
  %2 = alloca ptr, align 8
  %3 = alloca ptr, align 8
  store ptr %0, ptr %2, align 8, !tbaa !57
  call void @llvm.lifetime.start.p0(i64 8, ptr %3) #12
  %4 = load ptr, ptr %2, align 8, !tbaa !57
  %5 = getelementptr inbounds nuw %struct.pmix_object_t, ptr %4, i32 0, i32 1
  %6 = load ptr, ptr %5, align 8, !tbaa !98
  %7 = getelementptr inbounds nuw %struct.pmix_class_t, ptr %6, i32 0, i32 7
  %8 = load ptr, ptr %7, align 8, !tbaa !105
  store ptr %8, ptr %3, align 8, !tbaa !13
  br label %9

9:                                                ; preds = %13, %1
  %10 = load ptr, ptr %3, align 8, !tbaa !13
  %11 = load ptr, ptr %10, align 8, !tbaa !13
  %12 = icmp ne ptr null, %11
  br i1 %12, label %13, label %19

13:                                               ; preds = %9
  %14 = load ptr, ptr %3, align 8, !tbaa !13
  %15 = load ptr, ptr %14, align 8, !tbaa !13
  %16 = load ptr, ptr %2, align 8, !tbaa !57
  call void %15(ptr noundef %16)
  %17 = load ptr, ptr %3, align 8, !tbaa !13
  %18 = getelementptr inbounds nuw ptr, ptr %17, i32 1
  store ptr %18, ptr %3, align 8, !tbaa !13
  br label %9, !llvm.loop !106

19:                                               ; preds = %9
  call void @llvm.lifetime.end.p0(i64 8, ptr %3) #12
  ret void
}

; Function Attrs: inlinehint nounwind uwtable
define internal void @pmix_obj_run_constructors(ptr noundef %0) #3 {
  %2 = alloca ptr, align 8
  %3 = alloca ptr, align 8
  store ptr %0, ptr %2, align 8, !tbaa !57
  call void @llvm.lifetime.start.p0(i64 8, ptr %3) #12
  %4 = load ptr, ptr %2, align 8, !tbaa !57
  %5 = getelementptr inbounds nuw %struct.pmix_object_t, ptr %4, i32 0, i32 1
  %6 = load ptr, ptr %5, align 8, !tbaa !98
  %7 = getelementptr inbounds nuw %struct.pmix_class_t, ptr %6, i32 0, i32 6
  %8 = load ptr, ptr %7, align 8, !tbaa !119
  store ptr %8, ptr %3, align 8, !tbaa !13
  br label %9

9:                                                ; preds = %13, %1
  %10 = load ptr, ptr %3, align 8, !tbaa !13
  %11 = load ptr, ptr %10, align 8, !tbaa !13
  %12 = icmp ne ptr null, %11
  br i1 %12, label %13, label %19

13:                                               ; preds = %9
  %14 = load ptr, ptr %3, align 8, !tbaa !13
  %15 = load ptr, ptr %14, align 8, !tbaa !13
  %16 = load ptr, ptr %2, align 8, !tbaa !57
  call void %15(ptr noundef %16)
  %17 = load ptr, ptr %3, align 8, !tbaa !13
  %18 = getelementptr inbounds nuw ptr, ptr %17, i32 1
  store ptr %18, ptr %3, align 8, !tbaa !13
  br label %9, !llvm.loop !120

19:                                               ; preds = %9
  call void @llvm.lifetime.end.p0(i64 8, ptr %3) #12
  ret void
}

; Function Attrs: inlinehint nounwind uwtable
define internal void @pmix_obj_construct_tma(ptr noundef %0, ptr noundef %1) #3 {
  %3 = alloca ptr, align 8
  %4 = alloca ptr, align 8
  store ptr %0, ptr %3, align 8, !tbaa !57
  store ptr %1, ptr %4, align 8, !tbaa !107
  %5 = load ptr, ptr %4, align 8, !tbaa !107
  %6 = icmp eq ptr null, %5
  br i1 %6, label %7, label %32

7:                                                ; preds = %2
  %8 = load ptr, ptr %3, align 8, !tbaa !57
  %9 = getelementptr inbounds nuw %struct.pmix_object_t, ptr %8, i32 0, i32 3
  %10 = getelementptr inbounds nuw %struct.pmix_tma, ptr %9, i32 0, i32 0
  store ptr null, ptr %10, align 8, !tbaa !111
  %11 = load ptr, ptr %3, align 8, !tbaa !57
  %12 = getelementptr inbounds nuw %struct.pmix_object_t, ptr %11, i32 0, i32 3
  %13 = getelementptr inbounds nuw %struct.pmix_tma, ptr %12, i32 0, i32 1
  store ptr null, ptr %13, align 8, !tbaa !112
  %14 = load ptr, ptr %3, align 8, !tbaa !57
  %15 = getelementptr inbounds nuw %struct.pmix_object_t, ptr %14, i32 0, i32 3
  %16 = getelementptr inbounds nuw %struct.pmix_tma, ptr %15, i32 0, i32 2
  store ptr null, ptr %16, align 8, !tbaa !113
  %17 = load ptr, ptr %3, align 8, !tbaa !57
  %18 = getelementptr inbounds nuw %struct.pmix_object_t, ptr %17, i32 0, i32 3
  %19 = getelementptr inbounds nuw %struct.pmix_tma, ptr %18, i32 0, i32 3
  store ptr null, ptr %19, align 8, !tbaa !114
  %20 = load ptr, ptr %3, align 8, !tbaa !57
  %21 = getelementptr inbounds nuw %struct.pmix_object_t, ptr %20, i32 0, i32 3
  %22 = getelementptr inbounds nuw %struct.pmix_tma, ptr %21, i32 0, i32 4
  store ptr null, ptr %22, align 8, !tbaa !115
  %23 = load ptr, ptr %3, align 8, !tbaa !57
  %24 = getelementptr inbounds nuw %struct.pmix_object_t, ptr %23, i32 0, i32 3
  %25 = getelementptr inbounds nuw %struct.pmix_tma, ptr %24, i32 0, i32 5
  store ptr null, ptr %25, align 8, !tbaa !59
  %26 = load ptr, ptr %3, align 8, !tbaa !57
  %27 = getelementptr inbounds nuw %struct.pmix_object_t, ptr %26, i32 0, i32 3
  %28 = getelementptr inbounds nuw %struct.pmix_tma, ptr %27, i32 0, i32 6
  store ptr null, ptr %28, align 8, !tbaa !116
  %29 = load ptr, ptr %3, align 8, !tbaa !57
  %30 = getelementptr inbounds nuw %struct.pmix_object_t, ptr %29, i32 0, i32 3
  %31 = getelementptr inbounds nuw %struct.pmix_tma, ptr %30, i32 0, i32 7
  store ptr null, ptr %31, align 8, !tbaa !117
  br label %36

32:                                               ; preds = %2
  %33 = load ptr, ptr %3, align 8, !tbaa !57
  %34 = getelementptr inbounds nuw %struct.pmix_object_t, ptr %33, i32 0, i32 3
  %35 = load ptr, ptr %4, align 8, !tbaa !107
  call void @llvm.memcpy.p0.p0.i64(ptr align 8 %34, ptr align 8 %35, i64 64, i1 false), !tbaa.struct !118
  br label %36

36:                                               ; preds = %32, %7
  ret void
}

; Function Attrs: nounwind uwtable
define internal void @killprocs(ptr noundef %0, i32 noundef %1) #0 {
  %3 = alloca ptr, align 8
  %4 = alloca i32, align 4
  %5 = alloca %struct.pmix_pointer_array_t, align 8
  %6 = alloca %struct.prte_proc_t, align 8
  %7 = alloca i32, align 4
  %8 = alloca i32, align 4
  store ptr %0, ptr %3, align 8, !tbaa !93
  store i32 %1, ptr %4, align 4, !tbaa !9
  call void @llvm.lifetime.start.p0(i64 160, ptr %5) #12
  call void @llvm.lifetime.start.p0(i64 752, ptr %6) #12
  call void @llvm.lifetime.start.p0(i64 4, ptr %7) #12
  %9 = load ptr, ptr %3, align 8, !tbaa !93
  %10 = call zeroext i1 @PMIx_Nspace_invalid(ptr noundef %9)
  br i1 %10, label %11, label %29

11:                                               ; preds = %2
  %12 = load i32, ptr %4, align 4, !tbaa !9
  %13 = icmp eq i32 -2, %12
  br i1 %13, label %14, label %29

14:                                               ; preds = %11
  %15 = load ptr, ptr getelementptr inbounds nuw (%struct.prte_odls_base_module_1_3_0_t, ptr @prte_odls, i32 0, i32 2), align 8, !tbaa !94
  %16 = call i32 %15(ptr noundef null)
  store i32 %16, ptr %7, align 4, !tbaa !9
  %17 = icmp ne i32 0, %16
  br i1 %17, label %18, label %28

18:                                               ; preds = %14
  br label %19

19:                                               ; preds = %18
  %20 = load i32, ptr %7, align 4, !tbaa !9
  %21 = icmp ne i32 -43, %20
  br i1 %21, label %22, label %25

22:                                               ; preds = %19
  %23 = load i32, ptr %7, align 4, !tbaa !9
  %24 = call ptr @prte_strerror(i32 noundef %23)
  call void (i32, ptr, ...) @pmix_output(i32 noundef 0, ptr noundef @.str.5, ptr noundef %24, ptr noundef @.str.3, i32 noundef 829)
  br label %25

25:                                               ; preds = %22, %19
  br label %26

26:                                               ; preds = %25
  br label %27

27:                                               ; preds = %26
  br label %28

28:                                               ; preds = %27, %14
  store i32 1, ptr %8, align 4
  br label %86

29:                                               ; preds = %11, %2
  br label %30

30:                                               ; preds = %29
  br label %31

31:                                               ; preds = %30
  br label %32

32:                                               ; preds = %31
  %33 = load i32, ptr @pmix_class_init_epoch, align 4, !tbaa !9
  %34 = load i32, ptr getelementptr inbounds nuw (%struct.pmix_class_t, ptr @pmix_pointer_array_t_class, i32 0, i32 4), align 8, !tbaa !96
  %35 = icmp ne i32 %33, %34
  br i1 %35, label %36, label %37

36:                                               ; preds = %32
  call void @pmix_class_initialize(ptr noundef @pmix_pointer_array_t_class)
  br label %37

37:                                               ; preds = %36, %32
  %38 = getelementptr inbounds nuw %struct.pmix_object_t, ptr %5, i32 0, i32 1
  store ptr @pmix_pointer_array_t_class, ptr %38, align 8, !tbaa !98
  %39 = getelementptr inbounds nuw %struct.pmix_object_t, ptr %5, i32 0, i32 2
  store i32 1, ptr %39, align 8, !tbaa !91
  call void @pmix_obj_construct_tma(ptr noundef %5, ptr noundef null)
  call void @pmix_obj_run_constructors(ptr noundef %5)
  br label %40

40:                                               ; preds = %37
  br label %41

41:                                               ; preds = %40
  br label %42

42:                                               ; preds = %41
  br label %43

43:                                               ; preds = %42
  br label %44

44:                                               ; preds = %43
  br label %45

45:                                               ; preds = %44
  br label %46

46:                                               ; preds = %45
  br label %47

47:                                               ; preds = %46
  br label %48

48:                                               ; preds = %47
  %49 = load i32, ptr @pmix_class_init_epoch, align 4, !tbaa !9
  %50 = load i32, ptr getelementptr inbounds nuw (%struct.pmix_class_t, ptr @prte_proc_t_class, i32 0, i32 4), align 8, !tbaa !96
  %51 = icmp ne i32 %49, %50
  br i1 %51, label %52, label %53

52:                                               ; preds = %48
  call void @pmix_class_initialize(ptr noundef @prte_proc_t_class)
  br label %53

53:                                               ; preds = %52, %48
  %54 = getelementptr inbounds nuw %struct.pmix_object_t, ptr %6, i32 0, i32 1
  store ptr @prte_proc_t_class, ptr %54, align 8, !tbaa !98
  %55 = getelementptr inbounds nuw %struct.pmix_object_t, ptr %6, i32 0, i32 2
  store i32 1, ptr %55, align 8, !tbaa !91
  call void @pmix_obj_construct_tma(ptr noundef %6, ptr noundef null)
  call void @pmix_obj_run_constructors(ptr noundef %6)
  br label %56

56:                                               ; preds = %53
  br label %57

57:                                               ; preds = %56
  br label %58

58:                                               ; preds = %57
  br label %59

59:                                               ; preds = %58
  br label %60

60:                                               ; preds = %59
  br label %61

61:                                               ; preds = %60
  %62 = getelementptr inbounds nuw %struct.prte_proc_t, ptr %6, i32 0, i32 1
  %63 = load ptr, ptr %3, align 8, !tbaa !93
  %64 = load i32, ptr %4, align 4, !tbaa !9
  call void @PMIx_Load_procid(ptr noundef %62, ptr noundef %63, i32 noundef %64)
  %65 = call i32 @pmix_pointer_array_add(ptr noundef %5, ptr noundef %6)
  %66 = load ptr, ptr getelementptr inbounds nuw (%struct.prte_odls_base_module_1_3_0_t, ptr @prte_odls, i32 0, i32 2), align 8, !tbaa !94
  %67 = call i32 %66(ptr noundef %5)
  store i32 %67, ptr %7, align 4, !tbaa !9
  %68 = icmp ne i32 0, %67
  br i1 %68, label %69, label %79

69:                                               ; preds = %61
  br label %70

70:                                               ; preds = %69
  %71 = load i32, ptr %7, align 4, !tbaa !9
  %72 = icmp ne i32 -43, %71
  br i1 %72, label %73, label %76

73:                                               ; preds = %70
  %74 = load i32, ptr %7, align 4, !tbaa !9
  %75 = call ptr @prte_strerror(i32 noundef %74)
  call void (i32, ptr, ...) @pmix_output(i32 noundef 0, ptr noundef @.str.5, ptr noundef %75, ptr noundef @.str.3, i32 noundef 839)
  br label %76

76:                                               ; preds = %73, %70
  br label %77

77:                                               ; preds = %76
  br label %78

78:                                               ; preds = %77
  br label %79

79:                                               ; preds = %78, %61
  br label %80

80:                                               ; preds = %79
  call void @pmix_obj_run_destructors(ptr noundef %5)
  br label %81

81:                                               ; preds = %80
  br label %82

82:                                               ; preds = %81
  br label %83

83:                                               ; preds = %82
  call void @pmix_obj_run_destructors(ptr noundef %6)
  br label %84

84:                                               ; preds = %83
  br label %85

85:                                               ; preds = %84
  store i32 0, ptr %8, align 4
  br label %86

86:                                               ; preds = %85, %28
  call void @llvm.lifetime.end.p0(i64 4, ptr %7) #12
  call void @llvm.lifetime.end.p0(i64 752, ptr %6) #12
  call void @llvm.lifetime.end.p0(i64 160, ptr %5) #12
  %87 = load i32, ptr %8, align 4
  switch i32 %87, label %89 [
    i32 0, label %88
    i32 1, label %88
  ]

88:                                               ; preds = %86, %86
  ret void

89:                                               ; preds = %86
  unreachable
}