; Function Attrs: nounwind uwtable
define internal fastcc void @killprocs() unnamed_addr #0 {
  %1 = alloca %struct.pmix_pointer_array_t, align 8
  %2 = alloca %struct.prte_proc_t, align 8
  call void @llvm.lifetime.start.p0(i64 160, ptr nonnull %1) #13
  call void @llvm.lifetime.start.p0(i64 752, ptr nonnull %2) #13
  %3 = tail call zeroext i1 @PMIx_Nspace_invalid(ptr noundef null) #13
  br i1 %3, label %4, label %9

4:                                                ; preds = %0
  %5 = load ptr, ptr getelementptr inbounds nuw (i8, ptr @prte_odls, i64 16), align 8, !tbaa !91
  %6 = tail call i32 %5(ptr noundef null) #13
  switch i32 %6, label %7 [
    i32 -43, label %pmix_obj_run_destructors.exit27
    i32 0, label %pmix_obj_run_destructors.exit27
  ]

7:                                                ; preds = %4
  %8 = tail call ptr @prte_strerror(i32 noundef %6) #13
  tail call void (i32, ptr, ...) @pmix_output(i32 noundef 0, ptr noundef nonnull @.str.5, ptr noundef %8, ptr noundef nonnull @.str.3, i32 noundef 829) #13
  br label %pmix_obj_run_destructors.exit27

9:                                                ; preds = %0
  %10 = load i32, ptr @pmix_class_init_epoch, align 4, !tbaa !29
  %11 = load i32, ptr getelementptr inbounds nuw (i8, ptr @pmix_pointer_array_t_class, i64 32), align 8, !tbaa !93
  %.not = icmp eq i32 %10, %11
  br i1 %.not, label %13, label %12

12:                                               ; preds = %9
  tail call void @pmix_class_initialize(ptr noundef nonnull @pmix_pointer_array_t_class) #13
  br label %13

13:                                               ; preds = %12, %9
  %14 = getelementptr inbounds nuw i8, ptr %1, i64 40
  store ptr @pmix_pointer_array_t_class, ptr %14, align 8, !tbaa !70
  %15 = getelementptr inbounds nuw i8, ptr %1, i64 48
  store i32 1, ptr %15, align 8, !tbaa !30
  %16 = getelementptr inbounds nuw i8, ptr %1, i64 56
  call void @llvm.memset.p0.i64(ptr noundef nonnull align 8 dereferenceable(64) %16, i8 0, i64 64, i1 false)
  %17 = load ptr, ptr getelementptr inbounds nuw (i8, ptr @pmix_pointer_array_t_class, i64 40), align 8, !tbaa !94
  %18 = load ptr, ptr %17, align 8, !tbaa !54
  %.not6.i = icmp eq ptr %18, null
  br i1 %.not6.i, label %pmix_obj_run_constructors.exit, label %.lr.ph.i

.lr.ph.i:                                         ; preds = %13, %.lr.ph.i
  %19 = phi ptr [ %21, %.lr.ph.i ], [ %18, %13 ]
  %.07.i = phi ptr [ %20, %.lr.ph.i ], [ %17, %13 ]
  call void %19(ptr noundef nonnull %1) #13
  %20 = getelementptr inbounds nuw i8, ptr %.07.i, i64 8
  %21 = load ptr, ptr %20, align 8, !tbaa !54
  %.not.i = icmp eq ptr %21, null
  br i1 %.not.i, label %pmix_obj_run_constructors.exit, label %.lr.ph.i, !llvm.loop !95

pmix_obj_run_constructors.exit:                   ; preds = %.lr.ph.i, %13
  %22 = load i32, ptr @pmix_class_init_epoch, align 4, !tbaa !29
  %23 = load i32, ptr getelementptr inbounds nuw (i8, ptr @prte_proc_t_class, i64 32), align 8, !tbaa !93
  %.not13 = icmp eq i32 %22, %23
  br i1 %.not13, label %25, label %24

24:                                               ; preds = %pmix_obj_run_constructors.exit
  call void @pmix_class_initialize(ptr noundef nonnull @prte_proc_t_class) #13
  br label %25

25:                                               ; preds = %24, %pmix_obj_run_constructors.exit
  %26 = getelementptr inbounds nuw i8, ptr %2, i64 40
  store ptr @prte_proc_t_class, ptr %26, align 8, !tbaa !70
  %27 = getelementptr inbounds nuw i8, ptr %2, i64 48
  store i32 1, ptr %27, align 8, !tbaa !30
  %28 = getelementptr inbounds nuw i8, ptr %2, i64 56
  call void @llvm.memset.p0.i64(ptr noundef nonnull align 8 dereferenceable(64) %28, i8 0, i64 64, i1 false)
  %29 = load ptr, ptr getelementptr inbounds nuw (i8, ptr @prte_proc_t_class, i64 40), align 8, !tbaa !94
  %30 = load ptr, ptr %29, align 8, !tbaa !54
  %.not6.i14 = icmp eq ptr %30, null
  br i1 %.not6.i14, label %pmix_obj_run_constructors.exit18, label %.lr.ph.i15

.lr.ph.i15:                                       ; preds = %25, %.lr.ph.i15
  %31 = phi ptr [ %33, %.lr.ph.i15 ], [ %30, %25 ]
  %.07.i16 = phi ptr [ %32, %.lr.ph.i15 ], [ %29, %25 ]
  call void %31(ptr noundef nonnull %2) #13
  %32 = getelementptr inbounds nuw i8, ptr %.07.i16, i64 8
  %33 = load ptr, ptr %32, align 8, !tbaa !54
  %.not.i17 = icmp eq ptr %33, null
  br i1 %.not.i17, label %pmix_obj_run_constructors.exit18, label %.lr.ph.i15, !llvm.loop !95

pmix_obj_run_constructors.exit18:                 ; preds = %.lr.ph.i15, %25
  %34 = getelementptr inbounds nuw i8, ptr %2, i64 144
  call void @PMIx_Load_procid(ptr noundef nonnull %34, ptr noundef null, i32 noundef -2) #13
  %35 = call i32 @pmix_pointer_array_add(ptr noundef nonnull %1, ptr noundef nonnull %2) #13
  %36 = load ptr, ptr getelementptr inbounds nuw (i8, ptr @prte_odls, i64 16), align 8, !tbaa !91
  %37 = call i32 %36(ptr noundef nonnull %1) #13
  switch i32 %37, label %38 [
    i32 -43, label %40
    i32 0, label %40
  ]

38:                                               ; preds = %pmix_obj_run_constructors.exit18
  %39 = call ptr @prte_strerror(i32 noundef %37) #13
  call void (i32, ptr, ...) @pmix_output(i32 noundef 0, ptr noundef nonnull @.str.5, ptr noundef %39, ptr noundef nonnull @.str.3, i32 noundef 839) #13
  br label %40

40:                                               ; preds = %pmix_obj_run_constructors.exit18, %pmix_obj_run_constructors.exit18, %38
  %41 = load ptr, ptr %14, align 8, !tbaa !70
  %42 = getelementptr inbounds nuw i8, ptr %41, i64 48
  %43 = load ptr, ptr %42, align 8, !tbaa !71
  %44 = load ptr, ptr %43, align 8, !tbaa !54
  %.not6.i19 = icmp eq ptr %44, null
  br i1 %.not6.i19, label %pmix_obj_run_destructors.exit, label %.lr.ph.i20

.lr.ph.i20:                                       ; preds = %40, %.lr.ph.i20
  %45 = phi ptr [ %47, %.lr.ph.i20 ], [ %44, %40 ]
  %.07.i21 = phi ptr [ %46, %.lr.ph.i20 ], [ %43, %40 ]
  call void %45(ptr noundef nonnull %1) #13
  %46 = getelementptr inbounds nuw i8, ptr %.07.i21, i64 8
  %47 = load ptr, ptr %46, align 8, !tbaa !54
  %.not.i22 = icmp eq ptr %47, null
  br i1 %.not.i22, label %pmix_obj_run_destructors.exit, label %.lr.ph.i20, !llvm.loop !73

pmix_obj_run_destructors.exit:                    ; preds = %.lr.ph.i20, %40
  %48 = load ptr, ptr %26, align 8, !tbaa !70
  %49 = getelementptr inbounds nuw i8, ptr %48, i64 48
  %50 = load ptr, ptr %49, align 8, !tbaa !71
  %51 = load ptr, ptr %50, align 8, !tbaa !54
  %.not6.i23 = icmp eq ptr %51, null
  br i1 %.not6.i23, label %pmix_obj_run_destructors.exit27, label %.lr.ph.i24

.lr.ph.i24:                                       ; preds = %pmix_obj_run_destructors.exit, %.lr.ph.i24
  %52 = phi ptr [ %54, %.lr.ph.i24 ], [ %51, %pmix_obj_run_destructors.exit ]
  %.07.i25 = phi ptr [ %53, %.lr.ph.i24 ], [ %50, %pmix_obj_run_destructors.exit ]
  call void %52(ptr noundef nonnull %2) #13
  %53 = getelementptr inbounds nuw i8, ptr %.07.i25, i64 8
  %54 = load ptr, ptr %53, align 8, !tbaa !54
  %.not.i26 = icmp eq ptr %54, null
  br i1 %.not.i26, label %pmix_obj_run_destructors.exit27, label %.lr.ph.i24, !llvm.loop !73

pmix_obj_run_destructors.exit27:                  ; preds = %.lr.ph.i24, %pmix_obj_run_destructors.exit, %7, %4, %4
  call void @llvm.lifetime.end.p0(i64 752, ptr nonnull %2) #13
  call void @llvm.lifetime.end.p0(i64 160, ptr nonnull %1) #13
  ret void
}